; Function Attrs: mustprogress uwtable
define hidden void @_ZN7nanogui6Window6centerEv(ptr noundef nonnull align 8 dereferenceable(186) %0) local_unnamed_addr #0 align 2 {
  br label %2

2:                                                ; preds = %2, %1
  %.0 = phi ptr [ %0, %1 ], [ %4, %2 ]
  %3 = getelementptr inbounds i8, ptr %.0, i64 16
  %4 = load ptr, ptr %3, align 8
  %.not = icmp eq ptr %4, null
  br i1 %.not, label %5, label %2, !llvm.loop !7

5:                                                ; preds = %2
  tail call void @_ZN7nanogui6Screen13center_windowEPNS_6WindowE(ptr noundef nonnull align 8 dereferenceable(384) %.0, ptr noundef nonnull %0)
  ret void
}